Certificate:
    Data:
        Version: 3 (0x2)
        Serial Number: 222 (0xde)
    Signature Algorithm: sha256WithRSAEncryption
        Issuer: C=AU, ST=NSW, L=Sydney, O=SydU_info2222_2022_CC03_Team2, CN=Joel Shorland & William Guo
        Validity
            Not Before: Apr  2 12:12:06 2022 GMT
            Not After : Apr  2 12:12:06 2023 GMT
        Subject: C=AU, ST=NSW, O=SydU_info2222_2022_CC03_Team2, OU=info2222_2022, CN=CCo3_Team2
        Subject Public Key Info:
            Public Key Algorithm: rsaEncryption
                Public-Key: (2048 bit)
                Modulus:
                    00:ad:cf:68:f2:3b:be:d7:dc:75:4d:f1:ad:52:3a:
                    c7:24:14:fe:28:c0:b5:9a:03:94:fb:51:81:4a:ae:
                    8f:14:db:31:e8:b9:63:8a:a7:cd:92:14:d1:36:df:
                    19:04:89:66:e2:1a:8e:13:29:56:a8:3a:95:3d:ca:
                    57:6b:a3:aa:87:f8:08:59:39:f0:b7:50:a8:e4:79:
                    70:bc:5f:7a:9c:8c:a5:61:a7:c7:e8:b7:78:f2:6b:
                    64:ed:94:fd:2d:58:7c:56:45:63:a8:7a:c2:84:fd:
                    45:1c:42:be:8a:dd:27:40:ea:0f:0c:a9:47:d6:c3:
                    eb:87:d8:14:64:18:44:1e:b1:f4:58:dc:6c:7a:e2:
                    c0:ca:9e:62:6c:e4:54:91:86:e4:9c:ac:ef:b5:69:
                    5e:ae:d8:88:62:49:e5:6f:d3:52:a1:86:3f:af:4b:
                    89:a7:fd:eb:16:4b:bb:d6:a5:e5:55:5c:a9:6c:0e:
                    49:2e:7d:a7:38:a4:0e:dd:84:d1:6a:6f:6b:ef:24:
                    40:60:7b:02:be:15:5e:e9:fd:66:83:09:35:f4:60:
                    a9:be:dc:1e:4d:e8:05:4a:49:5e:e6:6d:f8:6b:f0:
                    be:dc:d3:9a:ac:dd:98:1e:69:e9:35:fd:d0:71:59:
                    5b:4d:05:4c:35:e8:b5:94:38:1c:eb:aa:db:33:29:
                    8a:b7
                Exponent: 65537 (0x10001)
        X509v3 extensions:
            X509v3 Basic Constraints: 
                CA:FALSE
            Netscape Comment: 
                OpenSSL Generated Certificate
            X509v3 Subject Key Identifier: 
                1F:FD:64:0E:33:CD:99:8B:CE:A3:7C:C0:07:1B:E2:10:20:2C:D4:F3
            X509v3 Authority Key Identifier: 
                DirName:/C=AU/ST=NSW/L=Sydney/O=SydU_info2222_2022_CC03_Team2/CN=Joel Shorland & William Guo
                serial:D4:C0:36:30:6E:1B:D5:CB

    Signature Algorithm: sha256WithRSAEncryption
         2f:e5:41:d1:f3:08:68:1e:a9:fe:34:bb:79:23:d3:ef:b5:2c:
         37:f3:44:37:8e:c4:97:33:d7:81:70:7a:93:5c:07:64:2e:f7:
         8b:c4:8d:8d:26:49:27:ba:02:61:a6:c5:89:55:5d:81:c0:a0:
         76:91:ef:1c:0c:77:e7:41:9f:5e:e4:6c:85:15:12:1e:83:c9:
         29:fc:27:3f:29:4a:1a:17:4e:d1:95:f0:4d:57:d1:c0:c1:d4:
         9f:e8:40:be:13:fc:f2:ab:0d:c8:36:6b:35:75:aa:09:0f:67:
         f4:67:e9:2d:d4:fd:28:5d:24:98:1e:f6:3e:6e:7f:38:31:c6:
         5e:4a:3b:ad:50:ec:81:20:ff:8a:30:96:94:b9:c7:5a:c2:07:
         6e:fb:36:0c:43:b8:e5:3a:46:8a:1e:7e:39:fa:b7:2e:d9:3d:
         d8:af:c0:0f:e5:de:48:b0:dc:2b:bb:8b:d2:c3:57:51:ec:32:
         f1:e1:db:2f:31:98:c3:7c:cc:35:6c:17:b7:e7:2f:3b:37:21:
         e3:3b:ff:b3:35:b9:94:10:62:ed:3f:4c:4b:e9:6b:a8:35:e3:
         bb:86:34:10:de:fd:12:54:80:1a:7e:8d:83:0f:5e:93:c2:d8:
         2c:eb:73:8f:15:c1:bb:37:f0:b9:d7:5e:21:cf:da:8e:f8:44:
         c4:8f:88:ac
-----BEGIN CERTIFICATE-----
MIIEWzCCA0OgAwIBAgICAN4wDQYJKoZIhvcNAQELBQAwejELMAkGA1UEBhMCQVUx
DDAKBgNVBAgMA05TVzEPMA0GA1UEBwwGU3lkbmV5MSYwJAYDVQQKDB1TeWRVX2lu
Zm8yMjIyXzIwMjJfQ0MwM19UZWFtMjEkMCIGA1UEAwwbSm9lbCBTaG9ybGFuZCAm
IFdpbGxpYW0gR3VvMB4XDTIyMDQwMjEyMTIwNloXDTIzMDQwMjEyMTIwNlowcDEL
MAkGA1UEBhMCQVUxDDAKBgNVBAgMA05TVzEmMCQGA1UECgwdU3lkVV9pbmZvMjIy
Ml8yMDIyX0NDMDNfVGVhbTIxFjAUBgNVBAsMDWluZm8yMjIyXzIwMjIxEzARBgNV
BAMMCkNDbzNfVGVhbTIwggEiMA0GCSqGSIb3DQEBAQUAA4IBDwAwggEKAoIBAQCt
z2jyO77X3HVN8a1SOsckFP4owLWaA5T7UYFKro8U2zHouWOKp82SFNE23xkEiWbi
Go4TKVaoOpU9yldro6qH+AhZOfC3UKjkeXC8X3qcjKVhp8fot3jya2TtlP0tWHxW
RWOoesKE/UUcQr6K3SdA6g8MqUfWw+uH2BRkGEQesfRY3Gx64sDKnmJs5FSRhuSc
rO+1aV6u2IhiSeVv01Khhj+vS4mn/esWS7vWpeVVXKlsDkkufac4pA7dhNFqb2vv
JEBgewK+FV7p/WaDCTX0YKm+3B5N6AVKSV7mbfhr8L7c05qs3Zgeaek1/dBxWVtN
BUw16LWUOBzrqtszKYq3AgMBAAGjgfQwgfEwCQYDVR0TBAIwADAsBglghkgBhvhC
AQ0EHxYdT3BlblNTTCBHZW5lcmF0ZWQgQ2VydGlmaWNhdGUwHQYDVR0OBBYEFB/9
ZA4zzZmLzqN8wAcb4hAgLNTzMIGWBgNVHSMEgY4wgYuhfqR8MHoxCzAJBgNVBAYT
AkFVMQwwCgYDVQQIDANOU1cxDzANBgNVBAcMBlN5ZG5leTEmMCQGA1UECgwdU3lk
VV9pbmZvMjIyMl8yMDIyX0NDMDNfVGVhbTIxJDAiBgNVBAMMG0pvZWwgU2hvcmxh
bmQgJiBXaWxsaWFtIEd1b4IJANTANjBuG9XLMA0GCSqGSIb3DQEBCwUAA4IBAQAv
5UHR8whoHqn+NLt5I9PvtSw380Q3jsSXM9eBcHqTXAdkLveLxI2NJkknugJhpsWJ
VV2BwKB2ke8cDHfnQZ9e5GyFFRIeg8kp/Cc/KUoaF07RlfBNV9HAwdSf6EC+E/zy
qw3INms1daoJD2f0Z+kt1P0oXSSYHvY+bn84McZeSjutUOyBIP+KMJaUucdawgdu
+zYMQ7jlOkaKHn45+rcu2T3Yr8AP5d5IsNwru4vSw1dR7DLx4dsvMZjDfMw1bBe3
5y87NyHjO/+zNbmUEGLtP0xL6WuoNeO7hjQQ3v0SVIAafo2DD16Twtgs63OPFcG7
N/C5114hz9qO+ETEj4is
-----END CERTIFICATE-----
